target datalayout = "e-m:e-p270:32:32-p271:32:32-p272:64:64-i64:64-i128:128-f80:128-n8:16:32:64-S128"
target triple = "x86_64-pc-linux-gnu"

%struct.Vec_Int_t_ = type { i32, i32, ptr }
%struct.Unr_Man_t_ = type { ptr, ptr, i32, ptr, ptr, ptr, ptr, ptr, ptr, ptr, ptr, ptr, ptr }
%struct.Gia_Man_t_ = type { ptr, ptr, i32, i32, i32, i32, ptr, ptr, i32, i32, i32, ptr, ptr, %struct.Vec_Int_t_, %struct.Vec_Int_t_, i32, i32, i32, %struct.Vec_Int_t_, ptr, ptr, ptr, i32, i32, i32, i32, ptr, ptr, ptr, ptr, ptr, i32, i32, ptr, i32, ptr, ptr, ptr, ptr, ptr, ptr, ptr, ptr, ptr, ptr, ptr, ptr, ptr, ptr, ptr, ptr, ptr, ptr, %struct.Vec_Int_t_, %struct.Vec_Int_t_, ptr, ptr, ptr, ptr, ptr, ptr, ptr, ptr, ptr, ptr, ptr, ptr, ptr, ptr, ptr, ptr, ptr, ptr, ptr, ptr, ptr, i32, float, float, ptr, ptr, i32, ptr, ptr, ptr, ptr, ptr, ptr, ptr, ptr, ptr, ptr, ptr, ptr, ptr, ptr, ptr, i64, i64, ptr, ptr, i32, i32, i32, i32, i32, i32, i32, i32, i32, i32, i32, i32, ptr, ptr, ptr, ptr, ptr, ptr, ptr, ptr, i32, i32, i32, ptr, i32, i32, ptr, ptr, ptr, ptr, ptr, ptr, i32, i32, ptr, %struct.Vec_Int_t_, %struct.Vec_Int_t_, %struct.Vec_Int_t_, ptr, ptr, ptr }
%struct.Unr_Obj_t_ = type { i32, i32, i64, i32, [1 x i32] }

; Function Attrs: nounwind uwtable
define internal i32 @Vec_IntSize(ptr noundef %0) #0 {
  %2 = alloca ptr, align 8
  store ptr %0, ptr %2, align 8
  %3 = load ptr, ptr %2, align 8
  %4 = getelementptr inbounds %struct.Vec_Int_t_, ptr %3, i32 0, i32 1
  %5 = load i32, ptr %4, align 4
  ret i32 %5
}

; Function Attrs: nounwind uwtable
define internal void @Unr_ManObjSetValue(ptr noundef %0, i32 noundef %1) #0 {
  %3 = alloca ptr, align 8
  %4 = alloca i32, align 4
  store ptr %0, ptr %3, align 8
  store i32 %1, ptr %4, align 4
  %5 = load ptr, ptr %3, align 8
  %6 = getelementptr inbounds %struct.Unr_Obj_t_, ptr %5, i32 0, i32 2
  %7 = load i64, ptr %6, align 4
  %8 = lshr i64 %7, 49
  %9 = trunc i64 %8 to i32
  %10 = add nsw i32 %9, 1
  %11 = and i32 32767, %10
  %12 = load ptr, ptr %3, align 8
  %13 = getelementptr inbounds %struct.Unr_Obj_t_, ptr %12, i32 0, i32 2
  %14 = load i64, ptr %13, align 4
  %15 = lshr i64 %14, 34
  %16 = and i64 %15, 32767
  %17 = trunc i64 %16 to i32
  %18 = srem i32 %11, %17
  %19 = load ptr, ptr %3, align 8
  %20 = getelementptr inbounds %struct.Unr_Obj_t_, ptr %19, i32 0, i32 2
  %21 = zext i32 %18 to i64
  %22 = load i64, ptr %20, align 4
  %23 = and i64 %21, 32767
  %24 = shl i64 %23, 49
  %25 = and i64 %22, 562949953421311
  %26 = or i64 %25, %24
  store i64 %26, ptr %20, align 4
  %27 = load i32, ptr %4, align 4
  %28 = load ptr, ptr %3, align 8
  %29 = getelementptr inbounds %struct.Unr_Obj_t_, ptr %28, i32 0, i32 4
  %30 = load ptr, ptr %3, align 8
  %31 = getelementptr inbounds %struct.Unr_Obj_t_, ptr %30, i32 0, i32 2
  %32 = load i64, ptr %31, align 4
  %33 = lshr i64 %32, 49
  %34 = trunc i64 %33 to i32
  %35 = zext i32 %34 to i64
  %36 = getelementptr inbounds [1 x i32], ptr %29, i64 0, i64 %35
  store i32 %27, ptr %36, align 4
  ret void
}

; Function Attrs: nounwind uwtable
define internal ptr @Unr_ManObj(ptr noundef %0, i32 noundef %1) #0 {
  %3 = alloca ptr, align 8
  %4 = alloca i32, align 4
  store ptr %0, ptr %3, align 8
  store i32 %1, ptr %4, align 4
  %5 = load ptr, ptr %3, align 8
  %6 = getelementptr inbounds %struct.Unr_Man_t_, ptr %5, i32 0, i32 7
  %7 = load ptr, ptr %6, align 8
  %8 = load i32, ptr %4, align 4
  %9 = sext i32 %8 to i64
  %10 = getelementptr inbounds i32, ptr %7, i64 %9
  ret ptr %10
}

; Function Attrs: nounwind uwtable
define internal i32 @Vec_IntEntry(ptr noundef %0, i32 noundef %1) #0 {
  %3 = alloca ptr, align 8
  %4 = alloca i32, align 4
  store ptr %0, ptr %3, align 8
  store i32 %1, ptr %4, align 4
  %5 = load ptr, ptr %3, align 8
  %6 = getelementptr inbounds %struct.Vec_Int_t_, ptr %5, i32 0, i32 2
  %7 = load ptr, ptr %6, align 8
  %8 = load i32, ptr %4, align 4
  %9 = sext i32 %8 to i64
  %10 = getelementptr inbounds i32, ptr %7, i64 %9
  %11 = load i32, ptr %10, align 4
  ret i32 %11
}

; Function Attrs: nounwind uwtable
define internal i32 @Gia_ManPoNum(ptr noundef %0) #0 {
  %2 = alloca ptr, align 8
  store ptr %0, ptr %2, align 8
  %3 = load ptr, ptr %2, align 8
  %4 = getelementptr inbounds %struct.Gia_Man_t_, ptr %3, i32 0, i32 12
  %5 = load ptr, ptr %4, align 8
  %6 = call i32 @Vec_IntSize(ptr noundef %5)
  %7 = load ptr, ptr %2, align 8
  %8 = getelementptr inbounds %struct.Gia_Man_t_, ptr %7, i32 0, i32 2
  %9 = load i32, ptr %8, align 8
  %10 = sub nsw i32 %6, %9
  ret i32 %10
}

; Function Attrs: nounwind uwtable
define internal i32 @Gia_ManRegNum(ptr noundef %0) #0 {
  %2 = alloca ptr, align 8
  store ptr %0, ptr %2, align 8
  %3 = load ptr, ptr %2, align 8
  %4 = getelementptr inbounds %struct.Gia_Man_t_, ptr %3, i32 0, i32 2
  %5 = load i32, ptr %4, align 8
  ret i32 %5
}

; Function Attrs: nounwind uwtable
define ptr @Unr_ManUnrollStart(ptr noundef %0, i32 noundef %1) #0 {
  %3 = alloca ptr, align 8
  %4 = alloca i32, align 4
  %5 = alloca i32, align 4
  %6 = alloca i32, align 4
  %7 = alloca ptr, align 8
  store ptr %0, ptr %3, align 8
  store i32 %1, ptr %4, align 4
  %8 = load ptr, ptr %3, align 8
  %9 = call ptr @Unr_ManAlloc(ptr noundef %8)
  store ptr %9, ptr %7, align 8
  %10 = load ptr, ptr %7, align 8
  %11 = load i32, ptr %4, align 4
  call void @Unr_ManSetup(ptr noundef %10, i32 noundef %11)
  store i32 0, ptr %5, align 4
  br label %12

12:                                               ; preds = %36, %2
  %13 = load i32, ptr %5, align 4
  %14 = load ptr, ptr %7, align 8
  %15 = getelementptr inbounds %struct.Unr_Man_t_, ptr %14, i32 0, i32 0
  %16 = load ptr, ptr %15, align 8
  %17 = call i32 @Gia_ManRegNum(ptr noundef %16)
  %18 = icmp slt i32 %13, %17
  br i1 %18, label %19, label %39

19:                                               ; preds = %12
  %20 = load ptr, ptr %7, align 8
  %21 = getelementptr inbounds %struct.Unr_Man_t_, ptr %20, i32 0, i32 11
  %22 = load ptr, ptr %21, align 8
  %23 = load ptr, ptr %7, align 8
  %24 = getelementptr inbounds %struct.Unr_Man_t_, ptr %23, i32 0, i32 0
  %25 = load ptr, ptr %24, align 8
  %26 = call i32 @Gia_ManPoNum(ptr noundef %25)
  %27 = load i32, ptr %5, align 4
  %28 = add nsw i32 %26, %27
  %29 = call i32 @Vec_IntEntry(ptr noundef %22, i32 noundef %28)
  store i32 %29, ptr %6, align 4
  %30 = icmp ne i32 %29, -1
  br i1 %30, label %31, label %35

31:                                               ; preds = %19
  %32 = load ptr, ptr %7, align 8
  %33 = load i32, ptr %6, align 4
  %34 = call ptr @Unr_ManObj(ptr noundef %32, i32 noundef %33)
  call void @Unr_ManObjSetValue(ptr noundef %34, i32 noundef 0)
  br label %35

35:                                               ; preds = %31, %19
  br label %36

36:                                               ; preds = %35
  %37 = load i32, ptr %5, align 4
  %38 = add nsw i32 %37, 1
  store i32 %38, ptr %5, align 4
  br label %12, !llvm.loop !18

39:                                               ; preds = %12
  %40 = load ptr, ptr %7, align 8
  ret ptr %40
}