; Function Attrs: nounwind uwtable
define noundef ptr @Unr_ManUnrollStart(ptr noundef %0, i32 noundef %1) local_unnamed_addr #0 {
  %3 = tail call ptr @Unr_ManAlloc(ptr noundef %0)
  tail call void @Unr_ManSetup(ptr noundef %3, i32 noundef %1)
  %4 = load ptr, ptr %3, align 8
  %5 = getelementptr i8, ptr %4, i64 16
  %.val1516 = load i32, ptr %5, align 8
  %6 = icmp sgt i32 %.val1516, 0
  br i1 %6, label %.lr.ph, label %._crit_edge

.lr.ph:                                           ; preds = %2
  %7 = getelementptr inbounds nuw i8, ptr %3, i64 88
  %8 = getelementptr i8, ptr %3, i64 56
  br label %9

9:                                                ; preds = %.lr.ph, %37
  %10 = phi ptr [ %4, %.lr.ph ], [ %38, %37 ]
  %.val1518 = phi i32 [ %.val1516, %.lr.ph ], [ %.val15, %37 ]
  %.017 = phi i32 [ 0, %.lr.ph ], [ %39, %37 ]
  %11 = load ptr, ptr %7, align 8
  %12 = getelementptr i8, ptr %10, i64 72
  %.val13 = load ptr, ptr %12, align 8
  %13 = getelementptr i8, ptr %.val13, i64 4
  %.val13.val = load i32, ptr %13, align 4
  %14 = sub i32 %.017, %.val1518
  %15 = add i32 %14, %.val13.val
  %16 = getelementptr i8, ptr %11, i64 8
  %.val = load ptr, ptr %16, align 8
  %17 = sext i32 %15 to i64
  %18 = getelementptr inbounds i32, ptr %.val, i64 %17
  %19 = load i32, ptr %18, align 4
  %.not = icmp eq i32 %19, -1
  br i1 %.not, label %37, label %20

20:                                               ; preds = %9
  %.val14 = load ptr, ptr %8, align 8
  %21 = sext i32 %19 to i64
  %22 = getelementptr inbounds i32, ptr %.val14, i64 %21
  %23 = getelementptr inbounds nuw i8, ptr %22, i64 8
  %24 = load i64, ptr %23, align 4
  %25 = lshr i64 %24, 49
  %26 = trunc nuw nsw i64 %25 to i16
  %27 = add nuw i16 %26, 1
  %.lhs.trunc.i = and i16 %27, 32767
  %28 = lshr i64 %24, 34
  %29 = trunc i64 %28 to i16
  %.rhs.trunc.i = and i16 %29, 32767
  %30 = urem i16 %.lhs.trunc.i, %.rhs.trunc.i
  %31 = zext nneg i16 %30 to i64
  %32 = shl nuw i64 %31, 49
  %33 = and i64 %24, 562949953421311
  %34 = or disjoint i64 %32, %33
  store i64 %34, ptr %23, align 4
  %35 = getelementptr inbounds nuw i8, ptr %22, i64 20
  %36 = getelementptr inbounds nuw [1 x i32], ptr %35, i64 0, i64 %31
  store i32 0, ptr %36, align 4
  %.pre = load ptr, ptr %3, align 8
  br label %37

37:                                               ; preds = %9, %20
  %38 = phi ptr [ %10, %9 ], [ %.pre, %20 ]
  %39 = add nuw nsw i32 %.017, 1
  %40 = getelementptr i8, ptr %38, i64 16
  %.val15 = load i32, ptr %40, align 8
  %41 = icmp slt i32 %39, %.val15
  br i1 %41, label %9, label %._crit_edge, !llvm.loop !18

._crit_edge:                                      ; preds = %37, %2
  ret ptr %3
}